target datalayout = "e-m:e-p270:32:32-p271:32:32-p272:64:64-i64:64-i128:128-f80:128-n8:16:32:64-S128"
target triple = "x86_64-pc-linux-gnu"

%struct.ident_t = type { i32, i32, i32, i32, ptr }
%"class.gmx::ArrayRef" = type { %"struct.gmx::ArrayRefIter", %"struct.gmx::ArrayRefIter" }
%"struct.gmx::ArrayRefIter" = type { ptr }
%"struct.gmx::PairlistParams" = type { i32, i8, float, float, i8, i8, i32, i32, i32, i32 }
%"class.gmx::PairlistSet" = type { %"class.std::vector", %"class.std::vector", %"class.std::vector.2", ptr, i8, i8, %"class.std::vector.7", i32, i32, i32, i32 }
%"class.std::vector" = type { %"struct.std::_Vector_base" }
%"struct.std::_Vector_base" = type { %"struct.std::_Vector_base<gmx::NbnxnPairlistCpu, std::allocator<gmx::NbnxnPairlistCpu>>::_Vector_impl" }
%"struct.std::_Vector_base<gmx::NbnxnPairlistCpu, std::allocator<gmx::NbnxnPairlistCpu>>::_Vector_impl" = type { %"struct.std::_Vector_base<gmx::NbnxnPairlistCpu, std::allocator<gmx::NbnxnPairlistCpu>>::_Vector_impl_data" }
%"struct.std::_Vector_base<gmx::NbnxnPairlistCpu, std::allocator<gmx::NbnxnPairlistCpu>>::_Vector_impl_data" = type { ptr, ptr, ptr }
%"class.std::vector.2" = type { %"struct.std::_Vector_base.3" }
%"struct.std::_Vector_base.3" = type { %"struct.std::_Vector_base<gmx::NbnxnPairlistGpu, std::allocator<gmx::NbnxnPairlistGpu>>::_Vector_impl" }
%"struct.std::_Vector_base<gmx::NbnxnPairlistGpu, std::allocator<gmx::NbnxnPairlistGpu>>::_Vector_impl" = type { %"struct.std::_Vector_base<gmx::NbnxnPairlistGpu, std::allocator<gmx::NbnxnPairlistGpu>>::_Vector_impl_data" }
%"struct.std::_Vector_base<gmx::NbnxnPairlistGpu, std::allocator<gmx::NbnxnPairlistGpu>>::_Vector_impl_data" = type { ptr, ptr, ptr }
%"class.std::vector.7" = type { %"struct.std::_Vector_base.8" }
%"struct.std::_Vector_base.8" = type { %"struct.std::_Vector_base<std::unique_ptr<gmx::AtomPairlist>, std::allocator<std::unique_ptr<gmx::AtomPairlist>>>::_Vector_impl" }
%"struct.std::_Vector_base<std::unique_ptr<gmx::AtomPairlist>, std::allocator<std::unique_ptr<gmx::AtomPairlist>>>::_Vector_impl" = type { %"struct.std::_Vector_base<std::unique_ptr<gmx::AtomPairlist>, std::allocator<std::unique_ptr<gmx::AtomPairlist>>>::_Vector_impl_data" }
%"struct.std::_Vector_base<std::unique_ptr<gmx::AtomPairlist>, std::allocator<std::unique_ptr<gmx::AtomPairlist>>>::_Vector_impl_data" = type { ptr, ptr, ptr }

@2 = private unnamed_addr constant %struct.ident_t { i32 0, i32 2, i32 0, i32 22, ptr @0 }, align 8

; Function Attrs: mustprogress uwtable
define void @_ZN3gmx11PairlistSet19dispatchPruneKernelEPKNS_16nbnxn_atomdata_tENS_8ArrayRefIKNS_11BasicVectorIfEEEE(ptr noundef nonnull align 8 dereferenceable(128) %0, ptr noundef %1, ptr %2, ptr %3) #0 align 2 {
  %5 = alloca %"class.gmx::ArrayRef", align 8
  %6 = alloca ptr, align 8
  %7 = alloca ptr, align 8
  %8 = alloca float, align 4
  %9 = alloca i32, align 4
  %10 = call i32 @__kmpc_global_thread_num(ptr @2)
  %11 = getelementptr inbounds nuw { ptr, ptr }, ptr %5, i32 0, i32 0
  store ptr %2, ptr %11, align 8
  %12 = getelementptr inbounds nuw { ptr, ptr }, ptr %5, i32 0, i32 1
  store ptr %3, ptr %12, align 8
  store ptr %0, ptr %6, align 8, !tbaa !13
  store ptr %1, ptr %7, align 8, !tbaa !11
  %13 = load ptr, ptr %6, align 8
  call void @llvm.lifetime.start.p0(i64 4, ptr %8) #6
  %14 = getelementptr inbounds nuw %"class.gmx::PairlistSet", ptr %13, i32 0, i32 3
  %15 = load ptr, ptr %14, align 8, !tbaa !15
  %16 = getelementptr inbounds nuw %"struct.gmx::PairlistParams", ptr %15, i32 0, i32 3
  %17 = load float, ptr %16, align 4, !tbaa !35
  store float %17, ptr %8, align 4, !tbaa !39
  call void @llvm.lifetime.start.p0(i64 4, ptr %9) #6
  %18 = call noundef i32 @_Z20gmx_omp_nthreads_get17ModuleMultiThread(i32 noundef 3)
  store i32 %18, ptr %9, align 4, !tbaa !40
  %19 = load i32, ptr %9, align 4, !tbaa !40
  call void @__kmpc_push_num_threads(ptr @2, i32 %10, i32 %19)
  call void (ptr, i32, ptr, ...) @__kmpc_fork_call(ptr @2, i32 5, ptr @_ZN3gmx11PairlistSet19dispatchPruneKernelEPKNS_16nbnxn_atomdata_tENS_8ArrayRefIKNS_11BasicVectorIfEEEE.omp_outlined, ptr %9, ptr %13, ptr %7, ptr %5, ptr %8)
  call void @llvm.lifetime.end.p0(i64 4, ptr %9) #6
  call void @llvm.lifetime.end.p0(i64 4, ptr %8) #6
  ret void
}