; Function Attrs: mustprogress uwtable
define void @_ZN3gmx11PairlistSet19dispatchPruneKernelEPKNS_16nbnxn_atomdata_tENS_8ArrayRefIKNS_11BasicVectorIfEEEE(ptr noundef nonnull align 8 dereferenceable(128) %0, ptr noundef %1, ptr %2, ptr %3) local_unnamed_addr #0 align 2 {
  %5 = alloca %"class.gmx::ArrayRef", align 8
  %6 = alloca ptr, align 8
  %7 = alloca float, align 4
  %8 = alloca i32, align 4
  %9 = tail call i32 @__kmpc_global_thread_num(ptr nonnull @2)
  store ptr %2, ptr %5, align 8
  %10 = getelementptr inbounds nuw i8, ptr %5, i64 8
  store ptr %3, ptr %10, align 8
  store ptr %1, ptr %6, align 8, !tbaa !4
  call void @llvm.lifetime.start.p0(i64 4, ptr nonnull %7) #4
  %11 = getelementptr inbounds nuw i8, ptr %0, i64 72
  %12 = load ptr, ptr %11, align 8, !tbaa !9
  %13 = getelementptr inbounds nuw i8, ptr %12, i64 12
  %14 = load float, ptr %13, align 4, !tbaa !29
  store float %14, ptr %7, align 4, !tbaa !33
  call void @llvm.lifetime.start.p0(i64 4, ptr nonnull %8) #4
  %15 = tail call noundef i32 @_Z20gmx_omp_nthreads_get17ModuleMultiThread(i32 noundef 3)
  store i32 %15, ptr %8, align 4, !tbaa !34
  tail call void @__kmpc_push_num_threads(ptr nonnull @2, i32 %9, i32 %15)
  call void (ptr, i32, ptr, ...) @__kmpc_fork_call(ptr nonnull @2, i32 5, ptr nonnull @_ZN3gmx11PairlistSet19dispatchPruneKernelEPKNS_16nbnxn_atomdata_tENS_8ArrayRefIKNS_11BasicVectorIfEEEE.omp_outlined, ptr nonnull %8, ptr nonnull %0, ptr nonnull %6, ptr nonnull %5, ptr nonnull %7)
  call void @llvm.lifetime.end.p0(i64 4, ptr nonnull %8) #4
  call void @llvm.lifetime.end.p0(i64 4, ptr nonnull %7) #4
  ret void
}